ARM GAS  C:\Users\kriso\AppData\Local\Temp\ccIztLm0.s 			page 1


   1              		.cpu cortex-m7
   2              		.eabi_attribute 28, 1
   3              		.eabi_attribute 20, 1
   4              		.eabi_attribute 21, 1
   5              		.eabi_attribute 23, 3
   6              		.eabi_attribute 24, 1
   7              		.eabi_attribute 25, 1
   8              		.eabi_attribute 26, 1
   9              		.eabi_attribute 30, 6
  10              		.eabi_attribute 34, 1
  11              		.eabi_attribute 18, 4
  12              		.file	"esc50v10_data.c"
  13              		.text
  14              	.Ltext0:
  15              		.cfi_sections	.debug_frame
  16              		.section	.data.__compound_literal.0,"aw"
  17              		.align	2
  20              	__compound_literal.0:
  21 0000 01000000 		.word	1
  22 0004 70720000 		.word	29296
  23 0008 01000000 		.word	1
  24 000c 01000000 		.word	1
  25              		.global	g_esc50v10_data_map_activations
  26              		.section	.data.g_esc50v10_data_map_activations,"aw"
  27              		.align	2
  30              	g_esc50v10_data_map_activations:
  31 0000 40040400 		.word	263232
  32 0004 00000000 		.word	0
  33 0008 00000000 		.word	0
  34 000c 00000000 		.word	0
  35 0010 70720000 		.word	29296
  36 0014 01       		.byte	1
  37 0015 04       		.byte	4
  38 0016 00       		.byte	0
  39 0017 00       		.byte	0
  40 0018 00000000 		.word	__compound_literal.0
  41              		.section	.data.__compound_literal.1,"aw"
  42              		.align	2
  45              	__compound_literal.1:
  46 0000 01000000 		.word	1
  47 0004 54770600 		.word	423764
  48 0008 01000000 		.word	1
  49 000c 01000000 		.word	1
  50              		.global	g_esc50v10_data_map_weights
  51              		.section	.data.g_esc50v10_data_map_weights,"aw"
  52              		.align	2
  55              	g_esc50v10_data_map_weights:
  56 0000 40040400 		.word	263232
  57 0004 00000000 		.word	s_esc50v10_weights_array_u64
  58 0008 00000000 		.word	0
  59 000c 00000000 		.word	0
  60 0010 54770600 		.word	423764
  61 0014 01       		.byte	1
  62 0015 04       		.byte	4
  63 0016 00       		.byte	0
  64 0017 00       		.byte	0
  65 0018 00000000 		.word	__compound_literal.1
ARM GAS  C:\Users\kriso\AppData\Local\Temp\ccIztLm0.s 			page 2


  66              		.section	.rodata
  67              		.align	2
  68              	.LC0:
  69 0000 01000000 		.word	1
  70 0004 70720000 		.word	29296
  71 0008 01000000 		.word	1
  72 000c 01000000 		.word	1
  73              		.section	.text.ai_esc50v10_data_activations_buffer_get,"ax",%progbits
  74              		.align	1
  75              		.global	ai_esc50v10_data_activations_buffer_get
  76              		.arch armv7e-m
  77              		.syntax unified
  78              		.thumb
  79              		.thumb_func
  80              		.fpu fpv5-d16
  82              	ai_esc50v10_data_activations_buffer_get:
  83              	.LFB320:
  84              		.file 1 "App/esc50v10_data.c"
   1:App/esc50v10_data.c **** /**
   2:App/esc50v10_data.c ****   ******************************************************************************
   3:App/esc50v10_data.c ****   * @file    esc50v10_data.c
   4:App/esc50v10_data.c ****   * @author  AST Embedded Analytics Research Platform
   5:App/esc50v10_data.c ****   * @date    Tue Oct 17 08:39:18 2023
   6:App/esc50v10_data.c ****   * @brief   AI Tool Automatic Code Generator for Embedded NN computing
   7:App/esc50v10_data.c ****   ******************************************************************************
   8:App/esc50v10_data.c ****   * @attention
   9:App/esc50v10_data.c ****   *
  10:App/esc50v10_data.c ****   * Copyright (c) 2023 STMicroelectronics.
  11:App/esc50v10_data.c ****   * All rights reserved.
  12:App/esc50v10_data.c ****   *
  13:App/esc50v10_data.c ****   * This software is licensed under terms that can be found in the LICENSE file
  14:App/esc50v10_data.c ****   * in the root directory of this software component.
  15:App/esc50v10_data.c ****   * If no LICENSE file comes with this software, it is provided AS-IS.
  16:App/esc50v10_data.c ****   ******************************************************************************
  17:App/esc50v10_data.c ****   */
  18:App/esc50v10_data.c **** #include "esc50v10_data.h"
  19:App/esc50v10_data.c **** #include "ai_platform_interface.h"
  20:App/esc50v10_data.c **** 
  21:App/esc50v10_data.c **** AI_API_DECLARE_BEGIN
  22:App/esc50v10_data.c **** ai_buffer g_esc50v10_data_map_activations[AI_ESC50V10_DATA_ACTIVATIONS_COUNT] = {
  23:App/esc50v10_data.c ****   AI_BUFFER_INIT(AI_FLAG_NONE,  AI_BUFFER_FORMAT_U8,
  24:App/esc50v10_data.c ****     AI_BUFFER_SHAPE_INIT(AI_SHAPE_BCWH, 4, 1, 29296, 1, 1),
  25:App/esc50v10_data.c ****     29296, NULL, NULL),    /* heap_overlay_pool */
  26:App/esc50v10_data.c ****   };
  27:App/esc50v10_data.c **** ai_buffer g_esc50v10_data_map_weights[AI_ESC50V10_DATA_WEIGHTS_COUNT] = {
  28:App/esc50v10_data.c ****   AI_BUFFER_INIT(AI_FLAG_NONE,  AI_BUFFER_FORMAT_U8,
  29:App/esc50v10_data.c ****     AI_BUFFER_SHAPE_INIT(AI_SHAPE_BCWH, 4, 1, 423764, 1, 1),
  30:App/esc50v10_data.c ****     423764, NULL, s_esc50v10_weights_array_u64),   /* weights_array */
  31:App/esc50v10_data.c ****   };
  32:App/esc50v10_data.c **** 
  33:App/esc50v10_data.c **** 
  34:App/esc50v10_data.c **** /*!
  35:App/esc50v10_data.c ****  * @brief Get network activations buffer initialized struct.
  36:App/esc50v10_data.c ****  * @ingroup esc50v10_data
  37:App/esc50v10_data.c ****  * @param[in] ptr a pointer to the activations array storage area
  38:App/esc50v10_data.c ****  * @return an ai_buffer initialized struct
  39:App/esc50v10_data.c ****  */
ARM GAS  C:\Users\kriso\AppData\Local\Temp\ccIztLm0.s 			page 3


  40:App/esc50v10_data.c **** AI_DEPRECATED
  41:App/esc50v10_data.c **** AI_API_ENTRY
  42:App/esc50v10_data.c **** ai_buffer ai_esc50v10_data_activations_buffer_get(const ai_handle ptr)
  43:App/esc50v10_data.c **** {
  85              		.loc 1 43 1
  86              		.cfi_startproc
  87              		@ args = 0, pretend = 0, frame = 56
  88              		@ frame_needed = 1, uses_anonymous_args = 0
  89              		@ link register save eliminated.
  90 0000 B0B4     		push	{r4, r5, r7}
  91              		.cfi_def_cfa_offset 12
  92              		.cfi_offset 4, -12
  93              		.cfi_offset 5, -8
  94              		.cfi_offset 7, -4
  95 0002 8FB0     		sub	sp, sp, #60
  96              		.cfi_def_cfa_offset 72
  97 0004 00AF     		add	r7, sp, #0
  98              		.cfi_def_cfa_register 7
  99 0006 7860     		str	r0, [r7, #4]
 100 0008 3960     		str	r1, [r7]
  44:App/esc50v10_data.c ****   ai_buffer buf = AI_BUFFER_INIT(
 101              		.loc 1 44 13
 102 000a 154B     		ldr	r3, .L3
 103 000c FB61     		str	r3, [r7, #28]
 104 000e 3B68     		ldr	r3, [r7]
 105 0010 3B62     		str	r3, [r7, #32]
 106 0012 0023     		movs	r3, #0
 107 0014 7B62     		str	r3, [r7, #36]
 108 0016 0023     		movs	r3, #0
 109 0018 BB62     		str	r3, [r7, #40]
 110 001a 47F27023 		movw	r3, #29296
 111 001e FB62     		str	r3, [r7, #44]
 112 0020 0123     		movs	r3, #1
 113 0022 87F83030 		strb	r3, [r7, #48]
 114 0026 3B6B     		ldr	r3, [r7, #48]
 115 0028 0422     		movs	r2, #4
 116 002a 62F31F23 		bfi	r3, r2, #8, #24
 117 002e 3B63     		str	r3, [r7, #48]
 118              		.loc 1 44 19
 119 0030 0C4B     		ldr	r3, .L3+4
 120 0032 07F10C04 		add	r4, r7, #12
 121 0036 0FCB     		ldm	r3, {r0, r1, r2, r3}
 122 0038 84E80F00 		stm	r4, {r0, r1, r2, r3}
 123              		.loc 1 44 13
 124 003c 07F10C03 		add	r3, r7, #12
 125 0040 7B63     		str	r3, [r7, #52]
  45:App/esc50v10_data.c ****     AI_FLAG_NONE, AI_BUFFER_FORMAT_U8,
  46:App/esc50v10_data.c ****     AI_BUFFER_SHAPE_INIT(AI_SHAPE_BCWH, 4, 1, AI_ESC50V10_DATA_ACTIVATIONS_SIZE, 1, AI_ESC50V10_DAT
  47:App/esc50v10_data.c ****     AI_ESC50V10_DATA_ACTIVATIONS_SIZE,
  48:App/esc50v10_data.c ****     NULL, ptr);
  49:App/esc50v10_data.c ****   return buf;
 126              		.loc 1 49 10
 127 0042 7B68     		ldr	r3, [r7, #4]
 128 0044 1D46     		mov	r5, r3
 129 0046 07F11C04 		add	r4, r7, #28
 130 004a 0FCC     		ldmia	r4!, {r0, r1, r2, r3}
 131 004c 0FC5     		stmia	r5!, {r0, r1, r2, r3}
ARM GAS  C:\Users\kriso\AppData\Local\Temp\ccIztLm0.s 			page 4


 132 004e 94E80700 		ldm	r4, {r0, r1, r2}
 133 0052 85E80700 		stm	r5, {r0, r1, r2}
  50:App/esc50v10_data.c **** }
 134              		.loc 1 50 1
 135 0056 7868     		ldr	r0, [r7, #4]
 136 0058 3C37     		adds	r7, r7, #60
 137              		.cfi_def_cfa_offset 12
 138 005a BD46     		mov	sp, r7
 139              		.cfi_def_cfa_register 13
 140              		@ sp needed
 141 005c B0BC     		pop	{r4, r5, r7}
 142              		.cfi_restore 7
 143              		.cfi_restore 5
 144              		.cfi_restore 4
 145              		.cfi_def_cfa_offset 0
 146 005e 7047     		bx	lr
 147              	.L4:
 148              		.align	2
 149              	.L3:
 150 0060 40040400 		.word	263232
 151 0064 00000000 		.word	.LC0
 152              		.cfi_endproc
 153              	.LFE320:
 155              		.section	.rodata
 156              		.align	2
 157              	.LC1:
 158 0010 01000000 		.word	1
 159 0014 54770600 		.word	423764
 160 0018 01000000 		.word	1
 161 001c 01000000 		.word	1
 162              		.section	.text.ai_esc50v10_data_weights_buffer_get,"ax",%progbits
 163              		.align	1
 164              		.global	ai_esc50v10_data_weights_buffer_get
 165              		.syntax unified
 166              		.thumb
 167              		.thumb_func
 168              		.fpu fpv5-d16
 170              	ai_esc50v10_data_weights_buffer_get:
 171              	.LFB321:
  51:App/esc50v10_data.c **** 
  52:App/esc50v10_data.c **** /*!
  53:App/esc50v10_data.c ****  * @brief Get network weights buffer initialized struct.
  54:App/esc50v10_data.c ****  * @ingroup esc50v10_data
  55:App/esc50v10_data.c ****  * @param[in] ptr a pointer to the weights array storage area
  56:App/esc50v10_data.c ****  * @return an ai_buffer initialized struct
  57:App/esc50v10_data.c ****  */
  58:App/esc50v10_data.c **** AI_DEPRECATED
  59:App/esc50v10_data.c **** AI_API_ENTRY
  60:App/esc50v10_data.c **** ai_buffer ai_esc50v10_data_weights_buffer_get(const ai_handle ptr)
  61:App/esc50v10_data.c **** {
 172              		.loc 1 61 1
 173              		.cfi_startproc
 174              		@ args = 0, pretend = 0, frame = 56
 175              		@ frame_needed = 1, uses_anonymous_args = 0
 176              		@ link register save eliminated.
 177 0000 B0B4     		push	{r4, r5, r7}
 178              		.cfi_def_cfa_offset 12
ARM GAS  C:\Users\kriso\AppData\Local\Temp\ccIztLm0.s 			page 5


 179              		.cfi_offset 4, -12
 180              		.cfi_offset 5, -8
 181              		.cfi_offset 7, -4
 182 0002 8FB0     		sub	sp, sp, #60
 183              		.cfi_def_cfa_offset 72
 184 0004 00AF     		add	r7, sp, #0
 185              		.cfi_def_cfa_register 7
 186 0006 7860     		str	r0, [r7, #4]
 187 0008 3960     		str	r1, [r7]
  62:App/esc50v10_data.c ****   ai_buffer buf = AI_BUFFER_INIT(
 188              		.loc 1 62 13
 189 000a 154B     		ldr	r3, .L7
 190 000c FB61     		str	r3, [r7, #28]
 191 000e 3B68     		ldr	r3, [r7]
 192 0010 3B62     		str	r3, [r7, #32]
 193 0012 0023     		movs	r3, #0
 194 0014 7B62     		str	r3, [r7, #36]
 195 0016 0023     		movs	r3, #0
 196 0018 BB62     		str	r3, [r7, #40]
 197 001a 124B     		ldr	r3, .L7+4
 198 001c FB62     		str	r3, [r7, #44]
 199 001e 0123     		movs	r3, #1
 200 0020 87F83030 		strb	r3, [r7, #48]
 201 0024 3B6B     		ldr	r3, [r7, #48]
 202 0026 0422     		movs	r2, #4
 203 0028 62F31F23 		bfi	r3, r2, #8, #24
 204 002c 3B63     		str	r3, [r7, #48]
 205              		.loc 1 62 19
 206 002e 0E4B     		ldr	r3, .L7+8
 207 0030 07F10C04 		add	r4, r7, #12
 208 0034 0FCB     		ldm	r3, {r0, r1, r2, r3}
 209 0036 84E80F00 		stm	r4, {r0, r1, r2, r3}
 210              		.loc 1 62 13
 211 003a 07F10C03 		add	r3, r7, #12
 212 003e 7B63     		str	r3, [r7, #52]
  63:App/esc50v10_data.c ****     AI_FLAG_NONE, AI_BUFFER_FORMAT_U8|AI_BUFFER_FMT_FLAG_CONST,
  64:App/esc50v10_data.c ****     AI_BUFFER_SHAPE_INIT(AI_SHAPE_BCWH, 4, 1, AI_ESC50V10_DATA_WEIGHTS_SIZE, 1, AI_ESC50V10_DATA_WE
  65:App/esc50v10_data.c ****     AI_ESC50V10_DATA_WEIGHTS_SIZE,
  66:App/esc50v10_data.c ****     NULL, ptr);
  67:App/esc50v10_data.c ****   return buf;
 213              		.loc 1 67 10
 214 0040 7B68     		ldr	r3, [r7, #4]
 215 0042 1D46     		mov	r5, r3
 216 0044 07F11C04 		add	r4, r7, #28
 217 0048 0FCC     		ldmia	r4!, {r0, r1, r2, r3}
 218 004a 0FC5     		stmia	r5!, {r0, r1, r2, r3}
 219 004c 94E80700 		ldm	r4, {r0, r1, r2}
 220 0050 85E80700 		stm	r5, {r0, r1, r2}
  68:App/esc50v10_data.c **** }
 221              		.loc 1 68 1
 222 0054 7868     		ldr	r0, [r7, #4]
 223 0056 3C37     		adds	r7, r7, #60
 224              		.cfi_def_cfa_offset 12
 225 0058 BD46     		mov	sp, r7
 226              		.cfi_def_cfa_register 13
 227              		@ sp needed
 228 005a B0BC     		pop	{r4, r5, r7}
ARM GAS  C:\Users\kriso\AppData\Local\Temp\ccIztLm0.s 			page 6


 229              		.cfi_restore 7
 230              		.cfi_restore 5
 231              		.cfi_restore 4
 232              		.cfi_def_cfa_offset 0
 233 005c 7047     		bx	lr
 234              	.L8:
 235 005e 00BF     		.align	2
 236              	.L7:
 237 0060 40040440 		.word	1074005056
 238 0064 54770600 		.word	423764
 239 0068 10000000 		.word	.LC1
 240              		.cfi_endproc
 241              	.LFE321:
 243              		.section	.text.ai_esc50v10_data_weights_get,"ax",%progbits
 244              		.align	1
 245              		.global	ai_esc50v10_data_weights_get
 246              		.syntax unified
 247              		.thumb
 248              		.thumb_func
 249              		.fpu fpv5-d16
 251              	ai_esc50v10_data_weights_get:
 252              	.LFB322:
  69:App/esc50v10_data.c **** 
  70:App/esc50v10_data.c **** 
  71:App/esc50v10_data.c **** /*!
  72:App/esc50v10_data.c ****  * @brief Get network weights array pointer as a handle ptr.
  73:App/esc50v10_data.c ****  * @ingroup esc50v10_data
  74:App/esc50v10_data.c ****  * @return a ai_handle pointer to the weights array
  75:App/esc50v10_data.c ****  */
  76:App/esc50v10_data.c **** AI_DEPRECATED
  77:App/esc50v10_data.c **** AI_API_ENTRY
  78:App/esc50v10_data.c **** ai_handle ai_esc50v10_data_weights_get(void)
  79:App/esc50v10_data.c **** {
 253              		.loc 1 79 1
 254              		.cfi_startproc
 255              		@ args = 0, pretend = 0, frame = 0
 256              		@ frame_needed = 1, uses_anonymous_args = 0
 257              		@ link register save eliminated.
 258 0000 80B4     		push	{r7}
 259              		.cfi_def_cfa_offset 4
 260              		.cfi_offset 7, -4
 261 0002 00AF     		add	r7, sp, #0
 262              		.cfi_def_cfa_register 7
  80:App/esc50v10_data.c ****   return AI_HANDLE_PTR(g_esc50v10_weights_table);
 263              		.loc 1 80 10
 264 0004 024B     		ldr	r3, .L11
  81:App/esc50v10_data.c **** 
  82:App/esc50v10_data.c **** }
 265              		.loc 1 82 1
 266 0006 1846     		mov	r0, r3
 267 0008 BD46     		mov	sp, r7
 268              		.cfi_def_cfa_register 13
 269              		@ sp needed
 270 000a 5DF8047B 		ldr	r7, [sp], #4
 271              		.cfi_restore 7
 272              		.cfi_def_cfa_offset 0
 273 000e 7047     		bx	lr
ARM GAS  C:\Users\kriso\AppData\Local\Temp\ccIztLm0.s 			page 7


 274              	.L12:
 275              		.align	2
 276              	.L11:
 277 0010 00000000 		.word	g_esc50v10_weights_table
 278              		.cfi_endproc
 279              	.LFE322:
 281              		.section	.rodata
 282              		.align	2
 283              	.LC4:
 284 0020 0000     		.short	0
 285 0022 0100     		.short	1
 286 0024 00000000 		.word	g_esc50v10_data_map_activations
 287              		.align	2
 288              	.LC5:
 289 0028 0000     		.short	0
 290 002a 0100     		.short	1
 291 002c 00000000 		.word	g_esc50v10_data_map_weights
 292              		.section	.text.ai_esc50v10_data_params_get,"ax",%progbits
 293              		.align	1
 294              		.global	ai_esc50v10_data_params_get
 295              		.syntax unified
 296              		.thumb
 297              		.thumb_func
 298              		.fpu fpv5-d16
 300              	ai_esc50v10_data_params_get:
 301              	.LFB323:
  83:App/esc50v10_data.c **** 
  84:App/esc50v10_data.c **** 
  85:App/esc50v10_data.c **** /*!
  86:App/esc50v10_data.c ****  * @brief Get network params configuration data structure.
  87:App/esc50v10_data.c ****  * @ingroup esc50v10_data
  88:App/esc50v10_data.c ****  * @return true if a valid configuration is present, false otherwise
  89:App/esc50v10_data.c ****  */
  90:App/esc50v10_data.c **** AI_API_ENTRY
  91:App/esc50v10_data.c **** ai_bool ai_esc50v10_data_params_get(ai_network_params* params)
  92:App/esc50v10_data.c **** {
 302              		.loc 1 92 1
 303              		.cfi_startproc
 304              		@ args = 0, pretend = 0, frame = 24
 305              		@ frame_needed = 1, uses_anonymous_args = 0
 306 0000 80B5     		push	{r7, lr}
 307              		.cfi_def_cfa_offset 8
 308              		.cfi_offset 7, -8
 309              		.cfi_offset 14, -4
 310 0002 86B0     		sub	sp, sp, #24
 311              		.cfi_def_cfa_offset 32
 312 0004 00AF     		add	r7, sp, #0
 313              		.cfi_def_cfa_register 7
 314 0006 7860     		str	r0, [r7, #4]
  93:App/esc50v10_data.c ****   if (!params) return false;
 315              		.loc 1 93 6
 316 0008 7B68     		ldr	r3, [r7, #4]
 317 000a 002B     		cmp	r3, #0
 318 000c 01D1     		bne	.L14
 319              		.loc 1 93 23 discriminator 1
 320 000e 0023     		movs	r3, #0
 321 0010 16E0     		b	.L16
ARM GAS  C:\Users\kriso\AppData\Local\Temp\ccIztLm0.s 			page 8


 322              	.L14:
  94:App/esc50v10_data.c ****   
  95:App/esc50v10_data.c ****   const ai_buffer_array map_activations = 
 323              		.loc 1 95 25
 324 0012 0D4A     		ldr	r2, .L17
 325 0014 07F11003 		add	r3, r7, #16
 326 0018 92E80300 		ldm	r2, {r0, r1}
 327 001c 83E80300 		stm	r3, {r0, r1}
  96:App/esc50v10_data.c ****     AI_BUFFER_ARRAY_OBJ_INIT(AI_FLAG_NONE, AI_ESC50V10_DATA_ACTIVATIONS_COUNT, g_esc50v10_data_map_
  97:App/esc50v10_data.c ****   
  98:App/esc50v10_data.c ****   const ai_buffer_array map_weights = 
 328              		.loc 1 98 25
 329 0020 0A4A     		ldr	r2, .L17+4
 330 0022 07F10803 		add	r3, r7, #8
 331 0026 92E80300 		ldm	r2, {r0, r1}
 332 002a 83E80300 		stm	r3, {r0, r1}
  99:App/esc50v10_data.c ****     AI_BUFFER_ARRAY_OBJ_INIT(AI_FLAG_NONE, AI_ESC50V10_DATA_WEIGHTS_COUNT, g_esc50v10_data_map_weig
 100:App/esc50v10_data.c **** 
 101:App/esc50v10_data.c ****   return ai_platform_bind_network_params(params, &map_weights, &map_activations);
 333              		.loc 1 101 10
 334 002e 07F11002 		add	r2, r7, #16
 335 0032 07F10803 		add	r3, r7, #8
 336 0036 1946     		mov	r1, r3
 337 0038 7868     		ldr	r0, [r7, #4]
 338 003a FFF7FEFF 		bl	ai_platform_bind_network_params
 339 003e 0346     		mov	r3, r0
 340              	.L16:
 102:App/esc50v10_data.c **** }
 341              		.loc 1 102 1 discriminator 1
 342 0040 1846     		mov	r0, r3
 343 0042 1837     		adds	r7, r7, #24
 344              		.cfi_def_cfa_offset 8
 345 0044 BD46     		mov	sp, r7
 346              		.cfi_def_cfa_register 13
 347              		@ sp needed
 348 0046 80BD     		pop	{r7, pc}
 349              	.L18:
 350              		.align	2
 351              	.L17:
 352 0048 20000000 		.word	.LC4
 353 004c 28000000 		.word	.LC5
 354              		.cfi_endproc
 355              	.LFE323:
 357              		.text
 358              	.Letext0:
 359              		.file 2 "c:\\program files\\daisytoolchain\\arm-none-eabi\\include\\machine\\_default_types.h"
 360              		.file 3 "c:\\program files\\daisytoolchain\\arm-none-eabi\\include\\sys\\_stdint.h"
 361              		.file 4 "./AI/Inc/ai_platform.h"
 362              		.file 5 "App/esc50v10_data_params.h"
 363              		.file 6 "App/esc50v10_data.h"
 364              		.file 7 "./AI/Inc/ai_datatypes_format.h"
 365              		.file 8 "./AI/Inc/ai_platform_interface.h"
ARM GAS  C:\Users\kriso\AppData\Local\Temp\ccIztLm0.s 			page 9

